target datalayout = "e-m:e-p270:32:32-p271:32:32-p272:64:64-i64:64-i128:128-f80:128-n8:16:32:64-S128"
target triple = "x86_64-pc-linux-gnu"

; Function Attrs: nounwind uwtable
define ptr @cl_hash_file_fd(i32 noundef %0, ptr noundef %1, ptr noundef %2) #0 {
  %4 = alloca ptr, align 8
  %5 = alloca i32, align 4
  %6 = alloca ptr, align 8
  %7 = alloca ptr, align 8
  %8 = alloca ptr, align 8
  %9 = alloca ptr, align 8
  %10 = alloca ptr, align 8
  %11 = alloca i32, align 4
  store i32 %0, ptr %5, align 4, !tbaa !13
  store ptr %1, ptr %6, align 8, !tbaa !3
  store ptr %2, ptr %7, align 8, !tbaa !11
  call void @llvm.lifetime.start.p0(i64 8, ptr %8) #8
  call void @llvm.lifetime.start.p0(i64 8, ptr %9) #8
  call void @llvm.lifetime.start.p0(i64 8, ptr %10) #8
  %12 = load ptr, ptr %6, align 8, !tbaa !3
  %13 = call ptr @EVP_get_digestbyname(ptr noundef %12)
  store ptr %13, ptr %9, align 8, !tbaa !15
  %14 = load ptr, ptr %9, align 8, !tbaa !15
  %15 = icmp ne ptr %14, null
  br i1 %15, label %17, label %16

16:                                               ; preds = %3
  store ptr null, ptr %4, align 8
  store i32 1, ptr %11, align 4
  br label %37

17:                                               ; preds = %3
  %18 = call ptr @EVP_MD_CTX_new()
  store ptr %18, ptr %8, align 8, !tbaa !17
  %19 = load ptr, ptr %8, align 8, !tbaa !17
  %20 = icmp ne ptr %19, null
  br i1 %20, label %22, label %21

21:                                               ; preds = %17
  store ptr null, ptr %4, align 8
  store i32 1, ptr %11, align 4
  br label %37

22:                                               ; preds = %17
  %23 = load ptr, ptr %8, align 8, !tbaa !17
  call void @EVP_MD_CTX_set_flags(ptr noundef %23, i32 noundef 8)
  %24 = load ptr, ptr %8, align 8, !tbaa !17
  %25 = load ptr, ptr %9, align 8, !tbaa !15
  %26 = call i32 @EVP_DigestInit_ex(ptr noundef %24, ptr noundef %25, ptr noundef null)
  %27 = icmp ne i32 %26, 0
  br i1 %27, label %30, label %28

28:                                               ; preds = %22
  %29 = load ptr, ptr %8, align 8, !tbaa !17
  call void @EVP_MD_CTX_free(ptr noundef %29)
  store ptr null, ptr %4, align 8
  store i32 1, ptr %11, align 4
  br label %37

30:                                               ; preds = %22
  %31 = load ptr, ptr %8, align 8, !tbaa !17
  %32 = load i32, ptr %5, align 4, !tbaa !13
  %33 = load ptr, ptr %7, align 8, !tbaa !11
  %34 = call ptr @cl_hash_file_fd_ctx(ptr noundef %31, i32 noundef %32, ptr noundef %33)
  store ptr %34, ptr %10, align 8, !tbaa !3
  %35 = load ptr, ptr %8, align 8, !tbaa !17
  call void @EVP_MD_CTX_free(ptr noundef %35)
  %36 = load ptr, ptr %10, align 8, !tbaa !3
  store ptr %36, ptr %4, align 8
  store i32 1, ptr %11, align 4
  br label %37

37:                                               ; preds = %30, %28, %21, %16
  call void @llvm.lifetime.end.p0(i64 8, ptr %10) #8
  call void @llvm.lifetime.end.p0(i64 8, ptr %9) #8
  call void @llvm.lifetime.end.p0(i64 8, ptr %8) #8
  %38 = load ptr, ptr %4, align 8
  ret ptr %38
}