; Function Attrs: nounwind uwtable
define noundef ptr @cl_hash_file_fd(i32 noundef %0, ptr noundef %1, ptr noundef %2) local_unnamed_addr #1 {
  %4 = tail call ptr @EVP_get_digestbyname(ptr noundef %1) #12
  %.not = icmp eq ptr %4, null
  br i1 %.not, label %11, label %5

5:                                                ; preds = %3
  %6 = tail call ptr @EVP_MD_CTX_new() #12
  %.not14 = icmp eq ptr %6, null
  br i1 %.not14, label %11, label %7

7:                                                ; preds = %5
  tail call void @EVP_MD_CTX_set_flags(ptr noundef nonnull %6, i32 noundef 8) #12
  %8 = tail call i32 @EVP_DigestInit_ex(ptr noundef nonnull %6, ptr noundef nonnull %4, ptr noundef null) #12
  %.not15 = icmp eq i32 %8, 0
  br i1 %.not15, label %.sink.split, label %9

9:                                                ; preds = %7
  %10 = tail call ptr @cl_hash_file_fd_ctx(ptr noundef nonnull %6, i32 noundef %0, ptr noundef %2)
  br label %.sink.split

.sink.split:                                      ; preds = %7, %9
  %.0.ph = phi ptr [ %10, %9 ], [ null, %7 ]
  tail call void @EVP_MD_CTX_free(ptr noundef nonnull %6) #12
  br label %11

11:                                               ; preds = %.sink.split, %5, %3
  %.0 = phi ptr [ null, %3 ], [ null, %5 ], [ %.0.ph, %.sink.split ]
  ret ptr %.0
}